target datalayout = "e-m:e-p270:32:32-p271:32:32-p272:64:64-i64:64-i128:128-f80:128-n8:16:32:64-S128"
target triple = "x86_64-pc-linux-gnu"

%"struct.Imf_3_4::Slice" = type <{ i32, [4 x i8], ptr, i64, i64, i32, i32, double, i8, i8, [6 x i8] }>
%"class.std::__cxx11::basic_stringstream" = type { %"class.std::basic_iostream.base", %"class.std::__cxx11::basic_stringbuf", %"class.std::basic_ios" }
%"class.std::basic_iostream.base" = type { %"class.std::basic_istream.base", %"class.std::basic_ostream.base" }
%"class.std::basic_istream.base" = type { ptr, i64 }
%"class.std::basic_ostream.base" = type { ptr }
%"class.std::__cxx11::basic_stringbuf" = type { %"class.std::basic_streambuf", i32, %"class.std::__cxx11::basic_string" }
%"class.std::basic_streambuf" = type { ptr, ptr, ptr, ptr, ptr, ptr, ptr, %"class.std::locale" }
%"class.std::locale" = type { ptr }
%"class.std::__cxx11::basic_string" = type { %"struct.std::__cxx11::basic_string<char>::_Alloc_hider", i64, %union.anon }
%"struct.std::__cxx11::basic_string<char>::_Alloc_hider" = type { ptr }
%union.anon = type { i64, [8 x i8] }
%"class.std::basic_ios" = type { %"class.std::ios_base", ptr, i8, i8, ptr, ptr, ptr, ptr }
%"class.std::ios_base" = type { ptr, i64, i64, i32, i32, i32, ptr, %"struct.std::ios_base::_Words", [8 x %"struct.std::ios_base::_Words"], i32, ptr, %"class.std::locale" }
%"struct.std::ios_base::_Words" = type { ptr, i64 }
%"class.Imath_3_2::Vec2" = type { i32, i32 }

@.str = private unnamed_addr constant [20 x i8] c"Invalid pixel type.\00", align 1
@_ZTIN7Iex_3_46ArgExcE = external constant ptr
@_ZN7Imf_3_45SliceC1ENS_9PixelTypeEPcmmiidbb = unnamed_addr alias void (ptr, i32, ptr, i64, i64, i32, i32, double, i1, i1), ptr @_ZN7Imf_3_45SliceC2ENS_9PixelTypeEPcmmiidbb

; Function Attrs: inlinehint mustprogress nounwind uwtable
define linkonce_odr noundef i32 @_ZStorSt12_Ios_IostateS_(i32 noundef %0, i32 noundef %1) #9 comdat {
  %3 = alloca i32, align 4
  %4 = alloca i32, align 4
  store i32 %0, ptr %3, align 4, !tbaa !135
  store i32 %1, ptr %4, align 4, !tbaa !135
  %5 = load i32, ptr %3, align 4, !tbaa !135
  %6 = load i32, ptr %4, align 4, !tbaa !135
  %7 = or i32 %5, %6
  ret i32 %7
}

; Function Attrs: mustprogress nounwind uwtable
define available_externally noundef i32 @_ZNKSt9basic_iosIcSt11char_traitsIcEE7rdstateEv(ptr noundef nonnull align 8 dereferenceable(264) %0) #4 align 2 {
  %2 = alloca ptr, align 8
  store ptr %0, ptr %2, align 8, !tbaa !83
  %3 = load ptr, ptr %2, align 8
  %4 = getelementptr inbounds nuw %"class.std::ios_base", ptr %3, i32 0, i32 5
  %5 = load i32, ptr %4, align 8, !tbaa !136
  ret i32 %5
}

; Function Attrs: mustprogress nounwind uwtable
define linkonce_odr hidden noundef i64 @_ZNSt11char_traitsIcE6lengthEPKc(ptr noundef %0) #4 comdat align 2 {
  %2 = alloca ptr, align 8
  store ptr %0, ptr %2, align 8, !tbaa !10
  %3 = load ptr, ptr %2, align 8, !tbaa !10
  %4 = call i64 @strlen(ptr noundef %3) #3
  ret i64 %4
}

; Function Attrs: mustprogress uwtable
define available_externally void @_ZNSt9basic_iosIcSt11char_traitsIcEE8setstateESt12_Ios_Iostate(ptr noundef nonnull align 8 dereferenceable(264) %0, i32 noundef %1) #5 align 2 {
  %3 = alloca ptr, align 8
  %4 = alloca i32, align 4
  store ptr %0, ptr %3, align 8, !tbaa !83
  store i32 %1, ptr %4, align 4, !tbaa !135
  %5 = load ptr, ptr %3, align 8
  %6 = call noundef i32 @_ZNKSt9basic_iosIcSt11char_traitsIcEE7rdstateEv(ptr noundef nonnull align 8 dereferenceable(264) %5)
  %7 = load i32, ptr %4, align 4, !tbaa !135
  %8 = call noundef i32 @_ZStorSt12_Ios_IostateS_(i32 noundef %6, i32 noundef %7)
  call void @_ZNSt9basic_iosIcSt11char_traitsIcEE5clearESt12_Ios_Iostate(ptr noundef nonnull align 8 dereferenceable(264) %5, i32 noundef %8)
  ret void
}

; Function Attrs: inlinehint mustprogress uwtable
define available_externally noundef nonnull align 8 dereferenceable(8) ptr @_ZStlsISt11char_traitsIcEERSt13basic_ostreamIcT_ES5_PKc(ptr noundef nonnull align 8 dereferenceable(8) %0, ptr noundef %1) #7 {
  %3 = alloca ptr, align 8
  %4 = alloca ptr, align 8
  store ptr %0, ptr %3, align 8, !tbaa !42
  store ptr %1, ptr %4, align 8, !tbaa !10
  %5 = load ptr, ptr %4, align 8, !tbaa !10
  %6 = icmp ne ptr %5, null
  br i1 %6, label %13, label %7

7:                                                ; preds = %2
  %8 = load ptr, ptr %3, align 8, !tbaa !42
  %9 = load ptr, ptr %8, align 8, !tbaa !40
  %10 = getelementptr i8, ptr %9, i64 -24
  %11 = load i64, ptr %10, align 8
  %12 = getelementptr inbounds i8, ptr %8, i64 %11
  call void @_ZNSt9basic_iosIcSt11char_traitsIcEE8setstateESt12_Ios_Iostate(ptr noundef nonnull align 8 dereferenceable(264) %12, i32 noundef 1)
  br label %19

13:                                               ; preds = %2
  %14 = load ptr, ptr %3, align 8, !tbaa !42
  %15 = load ptr, ptr %4, align 8, !tbaa !10
  %16 = load ptr, ptr %4, align 8, !tbaa !10
  %17 = call noundef i64 @_ZNSt11char_traitsIcE6lengthEPKc(ptr noundef %16)
  %18 = call noundef nonnull align 8 dereferenceable(8) ptr @_ZSt16__ostream_insertIcSt11char_traitsIcEERSt13basic_ostreamIT_T0_ES6_PKS3_l(ptr noundef nonnull align 8 dereferenceable(8) %14, ptr noundef %15, i64 noundef %17)
  br label %19

19:                                               ; preds = %13, %7
  %20 = load ptr, ptr %3, align 8, !tbaa !42
  ret ptr %20
}

; Function Attrs: mustprogress uwtable
define void @_ZN7Imf_3_45Slice4MakeENS_9PixelTypeEPKvRKN9Imath_3_24Vec2IiEEllmmiidbb(ptr dead_on_unwind noalias writable sret(%"struct.Imf_3_4::Slice") align 8 %0, i32 noundef %1, ptr noundef %2, ptr noundef nonnull align 4 dereferenceable(8) %3, i64 noundef %4, i64 noundef %5, i64 noundef %6, i64 noundef %7, i32 noundef %8, i32 noundef %9, double noundef %10, i1 noundef zeroext %11, i1 noundef zeroext %12) #5 align 2 personality ptr @__gxx_personality_v0 {
  %14 = alloca i32, align 4
  %15 = alloca ptr, align 8
  %16 = alloca ptr, align 8
  %17 = alloca i64, align 8
  %18 = alloca i64, align 8
  %19 = alloca i64, align 8
  %20 = alloca i64, align 8
  %21 = alloca i32, align 4
  %22 = alloca i32, align 4
  %23 = alloca double, align 8
  %24 = alloca i8, align 1
  %25 = alloca i8, align 1
  %26 = alloca i64, align 8
  %27 = alloca %"class.std::__cxx11::basic_stringstream", align 8
  %28 = alloca ptr, align 8
  %29 = alloca i32, align 4
  %30 = alloca i64, align 8
  %31 = alloca i64, align 8
  store i32 %1, ptr %14, align 4, !tbaa !8
  store ptr %2, ptr %15, align 8, !tbaa !32
  store ptr %3, ptr %16, align 8, !tbaa !33
  store i64 %4, ptr %17, align 8, !tbaa !12
  store i64 %5, ptr %18, align 8, !tbaa !12
  store i64 %6, ptr %19, align 8, !tbaa !12
  store i64 %7, ptr %20, align 8, !tbaa !12
  store i32 %8, ptr %21, align 4, !tbaa !14
  store i32 %9, ptr %22, align 4, !tbaa !14
  store double %10, ptr %23, align 8, !tbaa !16
  %32 = zext i1 %11 to i8
  store i8 %32, ptr %24, align 1, !tbaa !18
  %33 = zext i1 %12 to i8
  store i8 %33, ptr %25, align 1, !tbaa !18
  call void @llvm.lifetime.start.p0(i64 8, ptr %26) #3
  %34 = load ptr, ptr %15, align 8, !tbaa !32
  %35 = ptrtoint ptr %34 to i64
  store i64 %35, ptr %26, align 8, !tbaa !12
  %36 = load i64, ptr %19, align 8, !tbaa !12
  %37 = icmp eq i64 %36, 0
  br i1 %37, label %38, label %62

38:                                               ; preds = %13
  %39 = load i32, ptr %14, align 4, !tbaa !8
  switch i32 %39, label %61 [
    i32 0, label %40
    i32 1, label %41
    i32 2, label %42
    i32 3, label %43
  ]

40:                                               ; preds = %38
  store i64 4, ptr %19, align 8, !tbaa !12
  br label %61

41:                                               ; preds = %38
  store i64 2, ptr %19, align 8, !tbaa !12
  br label %61

42:                                               ; preds = %38
  store i64 4, ptr %19, align 8, !tbaa !12
  br label %61

43:                                               ; preds = %38
  br label %44

44:                                               ; preds = %43
  call void @_Z13iex_debugTrapv()
  call void @llvm.lifetime.start.p0(i64 392, ptr %27) #3
  call void @_ZNSt7__cxx1118basic_stringstreamIcSt11char_traitsIcESaIcEEC1Ev(ptr noundef nonnull align 8 dereferenceable(128) %27)
  %45 = getelementptr inbounds i8, ptr %27, i64 16
  %46 = invoke noundef nonnull align 8 dereferenceable(8) ptr @_ZStlsISt11char_traitsIcEERSt13basic_ostreamIcT_ES5_PKc(ptr noundef nonnull align 8 dereferenceable(8) %45, ptr noundef @.str)
          to label %47 unwind label %50

47:                                               ; preds = %44
  %48 = call ptr @__cxa_allocate_exception(i64 72) #3
  invoke void @_ZN7Iex_3_46ArgExcC1ERNSt7__cxx1118basic_stringstreamIcSt11char_traitsIcESaIcEEE(ptr noundef nonnull align 8 dereferenceable(72) %48, ptr noundef nonnull align 8 dereferenceable(128) %27)
          to label %49 unwind label %54

49:                                               ; preds = %47
  invoke void @__cxa_throw(ptr %48, ptr @_ZTIN7Iex_3_46ArgExcE, ptr @_ZN7Iex_3_46ArgExcD1Ev) #17
          to label %114 unwind label %50

50:                                               ; preds = %49, %44
  %51 = landingpad { ptr, i32 }
          cleanup
  %52 = extractvalue { ptr, i32 } %51, 0
  store ptr %52, ptr %28, align 8
  %53 = extractvalue { ptr, i32 } %51, 1
  store i32 %53, ptr %29, align 4
  br label %58

54:                                               ; preds = %47
  %55 = landingpad { ptr, i32 }
          cleanup
  %56 = extractvalue { ptr, i32 } %55, 0
  store ptr %56, ptr %28, align 8
  %57 = extractvalue { ptr, i32 } %55, 1
  store i32 %57, ptr %29, align 4
  call void @__cxa_free_exception(ptr %48) #3
  br label %58

58:                                               ; preds = %54, %50
  call void @_ZNSt7__cxx1118basic_stringstreamIcSt11char_traitsIcESaIcEED1Ev(ptr noundef nonnull align 8 dereferenceable(128) %27) #3
  call void @llvm.lifetime.end.p0(i64 392, ptr %27) #3
  call void @llvm.lifetime.end.p0(i64 8, ptr %26) #3
  br label %109

59:                                               ; No predecessors!
  br label %60

60:                                               ; preds = %59
  br label %61

61:                                               ; preds = %60, %38, %42, %41, %40
  br label %62

62:                                               ; preds = %61, %13
  %63 = load i64, ptr %20, align 8, !tbaa !12
  %64 = icmp eq i64 %63, 0
  br i1 %64, label %65, label %72

65:                                               ; preds = %62
  %66 = load i64, ptr %17, align 8, !tbaa !12
  %67 = load i32, ptr %21, align 4, !tbaa !14
  %68 = sext i32 %67 to i64
  %69 = sdiv i64 %66, %68
  %70 = load i64, ptr %19, align 8, !tbaa !12
  %71 = mul i64 %69, %70
  store i64 %71, ptr %20, align 8, !tbaa !12
  br label %72

72:                                               ; preds = %65, %62
  call void @llvm.lifetime.start.p0(i64 8, ptr %30) #3
  %73 = load ptr, ptr %16, align 8, !tbaa !33
  %74 = getelementptr inbounds nuw %"class.Imath_3_2::Vec2", ptr %73, i32 0, i32 0
  %75 = load i32, ptr %74, align 4, !tbaa !35
  %76 = sext i32 %75 to i64
  %77 = load i32, ptr %21, align 4, !tbaa !14
  %78 = sext i32 %77 to i64
  %79 = sdiv i64 %76, %78
  store i64 %79, ptr %30, align 8, !tbaa !12
  %80 = load i64, ptr %19, align 8, !tbaa !12
  %81 = load i64, ptr %30, align 8, !tbaa !12
  %82 = mul nsw i64 %81, %80
  store i64 %82, ptr %30, align 8, !tbaa !12
  call void @llvm.lifetime.start.p0(i64 8, ptr %31) #3
  %83 = load ptr, ptr %16, align 8, !tbaa !33
  %84 = getelementptr inbounds nuw %"class.Imath_3_2::Vec2", ptr %83, i32 0, i32 1
  %85 = load i32, ptr %84, align 4, !tbaa !37
  %86 = sext i32 %85 to i64
  %87 = load i32, ptr %22, align 4, !tbaa !14
  %88 = sext i32 %87 to i64
  %89 = sdiv i64 %86, %88
  store i64 %89, ptr %31, align 8, !tbaa !12
  %90 = load i64, ptr %20, align 8, !tbaa !12
  %91 = load i64, ptr %31, align 8, !tbaa !12
  %92 = mul nsw i64 %91, %90
  store i64 %92, ptr %31, align 8, !tbaa !12
  %93 = load i32, ptr %14, align 4, !tbaa !8
  %94 = load i64, ptr %26, align 8, !tbaa !12
  %95 = load i64, ptr %30, align 8, !tbaa !12
  %96 = sub nsw i64 %94, %95
  %97 = load i64, ptr %31, align 8, !tbaa !12
  %98 = sub nsw i64 %96, %97
  %99 = inttoptr i64 %98 to ptr
  %100 = load i64, ptr %19, align 8, !tbaa !12
  %101 = load i64, ptr %20, align 8, !tbaa !12
  %102 = load i32, ptr %21, align 4, !tbaa !14
  %103 = load i32, ptr %22, align 4, !tbaa !14
  %104 = load double, ptr %23, align 8, !tbaa !16
  %105 = load i8, ptr %24, align 1, !tbaa !18, !range !28, !noundef !29
  %106 = trunc i8 %105 to i1
  %107 = load i8, ptr %25, align 1, !tbaa !18, !range !28, !noundef !29
  %108 = trunc i8 %107 to i1
  call void @_ZN7Imf_3_45SliceC1ENS_9PixelTypeEPcmmiidbb(ptr noundef nonnull align 8 dereferenceable(50) %0, i32 noundef %93, ptr noundef %99, i64 noundef %100, i64 noundef %101, i32 noundef %102, i32 noundef %103, double noundef %104, i1 noundef zeroext %106, i1 noundef zeroext %108)
  call void @llvm.lifetime.end.p0(i64 8, ptr %31) #3
  call void @llvm.lifetime.end.p0(i64 8, ptr %30) #3
  call void @llvm.lifetime.end.p0(i64 8, ptr %26) #3
  ret void

109:                                              ; preds = %58
  %110 = load ptr, ptr %28, align 8
  %111 = load i32, ptr %29, align 4
  %112 = insertvalue { ptr, i32 } poison, ptr %110, 0
  %113 = insertvalue { ptr, i32 } %112, i32 %111, 1
  resume { ptr, i32 } %113

114:                                              ; preds = %49
  unreachable
}