; Function Attrs: mustprogress uwtable
define void @_ZN7Imf_3_45Slice4MakeENS_9PixelTypeEPKvRKN9Imath_3_24Vec2IiEEllmmiidbb(ptr dead_on_unwind noalias writable sret(%"struct.Imf_3_4::Slice") align 8 %0, i32 noundef %1, ptr noundef %2, ptr noundef nonnull readonly align 4 captures(none) dereferenceable(8) %3, i64 noundef %4, i64 %5, i64 noundef %6, i64 noundef %7, i32 noundef %8, i32 noundef %9, double noundef %10, i1 noundef zeroext %11, i1 noundef zeroext %12) local_unnamed_addr #4 align 2 personality ptr @__gxx_personality_v0 {
  %14 = alloca %"class.std::__cxx11::basic_stringstream", align 8
  %15 = icmp eq i64 %6, 0
  br i1 %15, label %16, label %29

16:                                               ; preds = %13
  switch i32 %1, label %29 [
    i32 0, label %17
    i32 1, label %18
    i32 2, label %17
    i32 3, label %19
  ]

17:                                               ; preds = %16, %16
  br label %29

18:                                               ; preds = %16
  br label %29

19:                                               ; preds = %16
  tail call void @_Z13iex_debugTrapv()
  call void @llvm.lifetime.start.p0(i64 392, ptr nonnull %14) #22
  call void @_ZNSt7__cxx1118basic_stringstreamIcSt11char_traitsIcESaIcEEC1Ev(ptr noundef nonnull align 8 dereferenceable(128) %14)
  %20 = getelementptr inbounds nuw i8, ptr %14, i64 16
  %21 = invoke noundef nonnull align 8 dereferenceable(8) ptr @_ZSt16__ostream_insertIcSt11char_traitsIcEERSt13basic_ostreamIT_T0_ES6_PKS3_l(ptr noundef nonnull align 8 dereferenceable(8) %20, ptr noundef nonnull @.str, i64 noundef 19)
          to label %_ZStlsISt11char_traitsIcEERSt13basic_ostreamIcT_ES5_PKc.exit unwind label %24

_ZStlsISt11char_traitsIcEERSt13basic_ostreamIcT_ES5_PKc.exit: ; preds = %19
  %22 = call ptr @__cxa_allocate_exception(i64 72) #22
  invoke void @_ZN7Iex_3_46ArgExcC1ERNSt7__cxx1118basic_stringstreamIcSt11char_traitsIcESaIcEEE(ptr noundef nonnull align 8 dereferenceable(72) %22, ptr noundef nonnull align 8 dereferenceable(128) %14)
          to label %23 unwind label %26

23:                                               ; preds = %_ZStlsISt11char_traitsIcEERSt13basic_ostreamIcT_ES5_PKc.exit
  invoke void @__cxa_throw(ptr nonnull %22, ptr nonnull @_ZTIN7Iex_3_46ArgExcE, ptr nonnull @_ZN7Iex_3_46ArgExcD1Ev) #23
          to label %46 unwind label %24

24:                                               ; preds = %19, %23
  %25 = landingpad { ptr, i32 }
          cleanup
  br label %28

26:                                               ; preds = %_ZStlsISt11char_traitsIcEERSt13basic_ostreamIcT_ES5_PKc.exit
  %27 = landingpad { ptr, i32 }
          cleanup
  call void @__cxa_free_exception(ptr nonnull %22) #22
  br label %28

28:                                               ; preds = %26, %24
  %.pn = phi { ptr, i32 } [ %25, %24 ], [ %27, %26 ]
  call void @_ZNSt7__cxx1118basic_stringstreamIcSt11char_traitsIcESaIcEED1Ev(ptr noundef nonnull align 8 dereferenceable(128) %14) #22
  call void @llvm.lifetime.end.p0(i64 392, ptr nonnull %14) #22
  resume { ptr, i32 } %.pn

29:                                               ; preds = %16, %17, %18, %13
  %.0 = phi i64 [ 0, %16 ], [ 2, %18 ], [ 4, %17 ], [ %6, %13 ]
  %30 = icmp eq i64 %7, 0
  %31 = sext i32 %8 to i64
  br i1 %30, label %32, label %._crit_edge

32:                                               ; preds = %29
  %33 = sdiv i64 %4, %31
  %34 = mul i64 %33, %.0
  br label %._crit_edge

._crit_edge:                                      ; preds = %29, %32
  %.027 = phi i64 [ %34, %32 ], [ %7, %29 ]
  %35 = ptrtoint ptr %2 to i64
  %36 = load i32, ptr %3, align 4, !tbaa !22
  %37 = sext i32 %36 to i64
  %38 = sdiv i64 %37, %31
  %39 = getelementptr inbounds nuw i8, ptr %3, i64 4
  %40 = load i32, ptr %39, align 4, !tbaa !24
  %41 = sext i32 %40 to i64
  %42 = sext i32 %9 to i64
  %43 = sdiv i64 %41, %42
  %.neg = mul i64 %38, %.0
  %.neg33 = mul i64 %43, %.027
  %reass.add = add i64 %.neg33, %.neg
  %44 = sub i64 %35, %reass.add
  %45 = inttoptr i64 %44 to ptr
  tail call void @_ZN7Imf_3_45SliceC1ENS_9PixelTypeEPcmmiidbb(ptr noundef nonnull align 8 dereferenceable(50) %0, i32 noundef %1, ptr noundef %45, i64 noundef %.0, i64 noundef %.027, i32 noundef %8, i32 noundef %9, double noundef %10, i1 noundef zeroext %11, i1 noundef zeroext %12)
  ret void

46:                                               ; preds = %23
  unreachable
}